target datalayout = "e-m:e-p270:32:32-p271:32:32-p272:64:64-i64:64-i128:128-f80:128-n8:16:32:64-S128"
target triple = "x86_64-pc-linux-gnu"

%struct.mbedtls_asn1_buf = type { i32, i64, ptr }

@.str.25 = private unnamed_addr constant [122 x i8] c"generated/home/dtcxzyw/WorkSpace/Projects/compilers/llvm-opt-benchmark/bench/lief/bench_build/mbed_src/library/x509_crt.c\00", align 1

; Function Attrs: inlinehint nounwind uwtable
define internal i32 @mbedtls_error_add(i32 noundef %0, i32 noundef %1, ptr noundef %2, i32 noundef %3) #9 {
  %5 = alloca i32, align 4
  %6 = alloca i32, align 4
  %7 = alloca ptr, align 8
  %8 = alloca i32, align 4
  store i32 %0, ptr %5, align 4, !tbaa !12
  store i32 %1, ptr %6, align 4, !tbaa !12
  store ptr %2, ptr %7, align 8, !tbaa !8
  store i32 %3, ptr %8, align 4, !tbaa !12
  %9 = load i32, ptr %5, align 4, !tbaa !12
  %10 = load i32, ptr %6, align 4, !tbaa !12
  %11 = add nsw i32 %9, %10
  ret i32 %11
}

; Function Attrs: nounwind uwtable
define internal i32 @x509_get_uid(ptr noundef %0, ptr noundef %1, ptr noundef %2, i32 noundef %3) #0 {
  %5 = alloca i32, align 4
  %6 = alloca ptr, align 8
  %7 = alloca ptr, align 8
  %8 = alloca ptr, align 8
  %9 = alloca i32, align 4
  %10 = alloca i32, align 4
  %11 = alloca i32, align 4
  store ptr %0, ptr %6, align 8, !tbaa !62
  store ptr %1, ptr %7, align 8, !tbaa !8
  store ptr %2, ptr %8, align 8, !tbaa !77
  store i32 %3, ptr %9, align 4, !tbaa !12
  call void @llvm.lifetime.start.p0(i64 4, ptr %10) #10
  store i32 -110, ptr %10, align 4, !tbaa !12
  %12 = load ptr, ptr %6, align 8, !tbaa !62
  %13 = load ptr, ptr %12, align 8, !tbaa !8
  %14 = load ptr, ptr %7, align 8, !tbaa !8
  %15 = icmp eq ptr %13, %14
  br i1 %15, label %16, label %17

16:                                               ; preds = %4
  store i32 0, ptr %5, align 4
  store i32 1, ptr %11, align 4
  br label %50

17:                                               ; preds = %4
  %18 = load ptr, ptr %6, align 8, !tbaa !62
  %19 = load ptr, ptr %18, align 8, !tbaa !8
  %20 = load i8, ptr %19, align 1, !tbaa !29
  %21 = zext i8 %20 to i32
  %22 = load ptr, ptr %8, align 8, !tbaa !77
  %23 = getelementptr inbounds nuw %struct.mbedtls_asn1_buf, ptr %22, i32 0, i32 0
  store i32 %21, ptr %23, align 8, !tbaa !119
  %24 = load ptr, ptr %6, align 8, !tbaa !62
  %25 = load ptr, ptr %7, align 8, !tbaa !8
  %26 = load ptr, ptr %8, align 8, !tbaa !77
  %27 = getelementptr inbounds nuw %struct.mbedtls_asn1_buf, ptr %26, i32 0, i32 1
  %28 = load i32, ptr %9, align 4, !tbaa !12
  %29 = or i32 160, %28
  %30 = call i32 @mbedtls_asn1_get_tag(ptr noundef %24, ptr noundef %25, ptr noundef %27, i32 noundef %29)
  store i32 %30, ptr %10, align 4, !tbaa !12
  %31 = icmp ne i32 %30, 0
  br i1 %31, label %32, label %39

32:                                               ; preds = %17
  %33 = load i32, ptr %10, align 4, !tbaa !12
  %34 = icmp eq i32 %33, -98
  br i1 %34, label %35, label %36

35:                                               ; preds = %32
  store i32 0, ptr %5, align 4
  store i32 1, ptr %11, align 4
  br label %50

36:                                               ; preds = %32
  %37 = load i32, ptr %10, align 4, !tbaa !12
  %38 = call i32 @mbedtls_error_add(i32 noundef -8576, i32 noundef %37, ptr noundef @.str.25, i32 noundef 485)
  store i32 %38, ptr %5, align 4
  store i32 1, ptr %11, align 4
  br label %50

39:                                               ; preds = %17
  %40 = load ptr, ptr %6, align 8, !tbaa !62
  %41 = load ptr, ptr %40, align 8, !tbaa !8
  %42 = load ptr, ptr %8, align 8, !tbaa !77
  %43 = getelementptr inbounds nuw %struct.mbedtls_asn1_buf, ptr %42, i32 0, i32 2
  store ptr %41, ptr %43, align 8, !tbaa !80
  %44 = load ptr, ptr %8, align 8, !tbaa !77
  %45 = getelementptr inbounds nuw %struct.mbedtls_asn1_buf, ptr %44, i32 0, i32 1
  %46 = load i64, ptr %45, align 8, !tbaa !79
  %47 = load ptr, ptr %6, align 8, !tbaa !62
  %48 = load ptr, ptr %47, align 8, !tbaa !8
  %49 = getelementptr inbounds nuw i8, ptr %48, i64 %46
  store ptr %49, ptr %47, align 8, !tbaa !8
  store i32 0, ptr %5, align 4
  store i32 1, ptr %11, align 4
  br label %50

50:                                               ; preds = %39, %36, %35, %16
  call void @llvm.lifetime.end.p0(i64 4, ptr %10) #10
  %51 = load i32, ptr %5, align 4
  ret i32 %51
}