; Function Attrs: nounwind uwtable
define internal fastcc range(i32 -2147483648, 2147475072) i32 @x509_get_uid(ptr noundef nonnull %0, ptr noundef %1, ptr noundef nonnull %2, i32 noundef range(i32 1, 3) %3) unnamed_addr #0 {
  %5 = load ptr, ptr %0, align 8, !tbaa !24
  %6 = icmp eq ptr %5, %1
  br i1 %6, label %20, label %7

7:                                                ; preds = %4
  %8 = load i8, ptr %5, align 1, !tbaa !43
  %9 = zext i8 %8 to i32
  store i32 %9, ptr %2, align 8, !tbaa !42
  %10 = getelementptr inbounds nuw i8, ptr %2, i64 8
  %11 = or disjoint i32 %3, 160
  %12 = tail call i32 @mbedtls_asn1_get_tag(ptr noundef nonnull %0, ptr noundef %1, ptr noundef nonnull %10, i32 noundef %11) #17
  switch i32 %12, label %13 [
    i32 0, label %15
    i32 -98, label %20
  ]

13:                                               ; preds = %7
  %14 = add nsw i32 %12, -8576
  br label %20

15:                                               ; preds = %7
  %16 = load ptr, ptr %0, align 8, !tbaa !24
  %17 = getelementptr inbounds nuw i8, ptr %2, i64 16
  store ptr %16, ptr %17, align 8, !tbaa !41
  %18 = load i64, ptr %10, align 8, !tbaa !39
  %19 = getelementptr inbounds nuw i8, ptr %16, i64 %18
  store ptr %19, ptr %0, align 8, !tbaa !24
  br label %20

20:                                               ; preds = %7, %4, %15, %13
  %.0 = phi i32 [ %14, %13 ], [ 0, %15 ], [ 0, %4 ], [ 0, %7 ]
  ret i32 %.0
}